; Function Attrs: nounwind uwtable
define dso_local void @Curl_conn_forget_socket(ptr noundef %0, i32 noundef %1) local_unnamed_addr #1 {
  %3 = getelementptr inbounds nuw i8, ptr %0, i64 24
  %4 = load ptr, ptr %3, align 8, !tbaa !56
  %.not = icmp eq ptr %4, null
  br i1 %.not, label %22, label %5

5:                                                ; preds = %2
  %6 = getelementptr inbounds nuw i8, ptr %4, i64 608
  %7 = sext i32 %1 to i64
  %8 = getelementptr inbounds [2 x ptr], ptr %6, i64 0, i64 %7
  %9 = load ptr, ptr %8, align 8, !tbaa !51
  %.not8 = icmp eq ptr %9, null
  br i1 %.not8, label %Curl_conn_cf_cntrl.exit, label %.lr.ph.split.us.i

.lr.ph.split.us.i:                                ; preds = %5, %16
  %.01218.us.i = phi ptr [ %18, %16 ], [ %9, %5 ]
  %10 = load ptr, ptr %.01218.us.i, align 8, !tbaa !15
  %11 = getelementptr inbounds nuw i8, ptr %10, i64 88
  %12 = load ptr, ptr %11, align 8, !tbaa !129
  %13 = icmp eq ptr %12, @Curl_cf_def_cntrl
  br i1 %13, label %16, label %14

14:                                               ; preds = %.lr.ph.split.us.i
  %15 = tail call i32 %12(ptr noundef nonnull %.01218.us.i, ptr noundef %0, i32 noundef 257, i32 noundef 0, ptr noundef null) #12
  br label %16

16:                                               ; preds = %14, %.lr.ph.split.us.i
  %17 = getelementptr inbounds nuw i8, ptr %.01218.us.i, i64 8
  %18 = load ptr, ptr %17, align 8, !tbaa !8
  %.not15.us.i = icmp eq ptr %18, null
  br i1 %.not15.us.i, label %Curl_conn_cf_cntrl.exit.loopexit, label %.lr.ph.split.us.i, !llvm.loop !130

Curl_conn_cf_cntrl.exit.loopexit:                 ; preds = %16
  %.pre = load ptr, ptr %3, align 8, !tbaa !56
  br label %Curl_conn_cf_cntrl.exit

Curl_conn_cf_cntrl.exit:                          ; preds = %Curl_conn_cf_cntrl.exit.loopexit, %5
  %19 = phi ptr [ %.pre, %Curl_conn_cf_cntrl.exit.loopexit ], [ %4, %5 ]
  %20 = getelementptr inbounds nuw i8, ptr %19, i64 568
  %21 = getelementptr inbounds [2 x i32], ptr %20, i64 0, i64 %7
  store i32 -1, ptr %21, align 4, !tbaa !44
  br label %22

22:                                               ; preds = %Curl_conn_cf_cntrl.exit, %2
  ret void
}